; Function Attrs: mustprogress uwtable
define hidden void @cvUndistortPoints(ptr noundef %0, ptr noundef %1, ptr noundef %2, ptr noundef %3, ptr noundef %4, ptr noundef %5) local_unnamed_addr #3 {
  %7 = alloca %"class.cv::TermCriteria", align 8
  store i32 1, ptr %7, align 8
  %8 = getelementptr inbounds i8, ptr %7, i64 4
  store i32 5, ptr %8, align 4
  %9 = getelementptr inbounds i8, ptr %7, i64 8
  store double 1.000000e-02, ptr %9, align 8
  tail call fastcc void @_ZL25cvUndistortPointsInternalPK5CvMatPS_S1_S1_S1_S1_N2cv12TermCriteriaE(ptr noundef %0, ptr noundef %1, ptr noundef %2, ptr noundef %3, ptr noundef %4, ptr noundef %5, ptr noundef nonnull byval(%"class.cv::TermCriteria") align 8 %7)
  ret void
}